target datalayout = "e-m:e-p270:32:32-p271:32:32-p272:64:64-i64:64-i128:128-f80:128-n8:16:32:64-S128"
target triple = "x86_64-pc-linux-gnu"

%class.fixed_bit_vector = type { [1 x i32] }

; Function Attrs: mustprogress nounwind uwtable
define linkonce_odr hidden noundef nonnull align 4 dereferenceable(4) ptr @_ZN16fixed_bit_vector12get_bit_wordEj(ptr noundef nonnull align 4 dereferenceable(4) %0, i32 noundef %1) #6 comdat align 2 {
  %3 = alloca ptr, align 8
  %4 = alloca i32, align 4
  store ptr %0, ptr %3, align 8, !tbaa !3
  store i32 %1, ptr %4, align 4, !tbaa !8
  %5 = load ptr, ptr %3, align 8
  %6 = getelementptr inbounds nuw %class.fixed_bit_vector, ptr %5, i32 0, i32 0
  %7 = load i32, ptr %4, align 4, !tbaa !8
  %8 = udiv i32 %7, 32
  %9 = zext i32 %8 to i64
  %10 = getelementptr inbounds nuw [1 x i32], ptr %6, i64 0, i64 %9
  ret ptr %10
}

; Function Attrs: mustprogress nounwind uwtable
define linkonce_odr hidden noundef i32 @_ZN16fixed_bit_vector12get_pos_maskEj(i32 noundef %0) #6 comdat align 2 {
  %2 = alloca i32, align 4
  store i32 %0, ptr %2, align 4, !tbaa !8
  %3 = load i32, ptr %2, align 4, !tbaa !8
  %4 = urem i32 %3, 32
  %5 = shl i32 1, %4
  ret i32 %5
}

; Function Attrs: mustprogress nounwind uwtable
define linkonce_odr hidden noundef i32 @_ZNK16fixed_bit_vector12get_bit_wordEj(ptr noundef nonnull align 4 dereferenceable(4) %0, i32 noundef %1) #6 comdat align 2 {
  %3 = alloca ptr, align 8
  %4 = alloca i32, align 4
  store ptr %0, ptr %3, align 8, !tbaa !3
  store i32 %1, ptr %4, align 4, !tbaa !8
  %5 = load ptr, ptr %3, align 8
  %6 = getelementptr inbounds nuw %class.fixed_bit_vector, ptr %5, i32 0, i32 0
  %7 = load i32, ptr %4, align 4, !tbaa !8
  %8 = udiv i32 %7, 32
  %9 = zext i32 %8 to i64
  %10 = getelementptr inbounds nuw [1 x i32], ptr %6, i64 0, i64 %9
  %11 = load i32, ptr %10, align 4, !tbaa !8
  ret i32 %11
}

; Function Attrs: mustprogress uwtable
define linkonce_odr hidden void @_ZN16fixed_bit_vector3setEjb(ptr noundef nonnull align 4 dereferenceable(4) %0, i32 noundef %1, i1 noundef zeroext %2) #4 comdat align 2 {
  %4 = alloca ptr, align 8
  %5 = alloca i32, align 4
  %6 = alloca i8, align 1
  %7 = alloca i32, align 4
  store ptr %0, ptr %4, align 8, !tbaa !3
  store i32 %1, ptr %5, align 4, !tbaa !8
  %8 = zext i1 %2 to i8
  store i8 %8, ptr %6, align 1, !tbaa !14
  %9 = load ptr, ptr %4, align 8
  call void @llvm.lifetime.start.p0(i64 4, ptr %7) #3
  %10 = load i8, ptr %6, align 1, !tbaa !14, !range !16, !noundef !17
  %11 = trunc i8 %10 to i1
  %12 = zext i1 %11 to i32
  store i32 %12, ptr %7, align 4, !tbaa !8
  %13 = load i32, ptr %7, align 4, !tbaa !8
  %14 = sub nsw i32 0, %13
  %15 = load i32, ptr %5, align 4, !tbaa !8
  %16 = call noundef nonnull align 4 dereferenceable(4) ptr @_ZN16fixed_bit_vector12get_bit_wordEj(ptr noundef nonnull align 4 dereferenceable(4) %9, i32 noundef %15)
  %17 = load i32, ptr %16, align 4, !tbaa !8
  %18 = xor i32 %14, %17
  %19 = load i32, ptr %5, align 4, !tbaa !8
  %20 = call noundef i32 @_ZN16fixed_bit_vector12get_pos_maskEj(i32 noundef %19)
  %21 = and i32 %18, %20
  %22 = load i32, ptr %5, align 4, !tbaa !8
  %23 = call noundef nonnull align 4 dereferenceable(4) ptr @_ZN16fixed_bit_vector12get_bit_wordEj(ptr noundef nonnull align 4 dereferenceable(4) %9, i32 noundef %22)
  %24 = load i32, ptr %23, align 4, !tbaa !8
  %25 = xor i32 %24, %21
  store i32 %25, ptr %23, align 4, !tbaa !8
  call void @llvm.lifetime.end.p0(i64 4, ptr %7) #3
  ret void
}

; Function Attrs: mustprogress uwtable
define linkonce_odr hidden noundef zeroext i1 @_ZNK16fixed_bit_vector3getEj(ptr noundef nonnull align 4 dereferenceable(4) %0, i32 noundef %1) #4 comdat align 2 {
  %3 = alloca ptr, align 8
  %4 = alloca i32, align 4
  store ptr %0, ptr %3, align 8, !tbaa !3
  store i32 %1, ptr %4, align 4, !tbaa !8
  %5 = load ptr, ptr %3, align 8
  %6 = load i32, ptr %4, align 4, !tbaa !8
  %7 = call noundef i32 @_ZNK16fixed_bit_vector12get_bit_wordEj(ptr noundef nonnull align 4 dereferenceable(4) %5, i32 noundef %6)
  %8 = load i32, ptr %4, align 4, !tbaa !8
  %9 = call noundef i32 @_ZN16fixed_bit_vector12get_pos_maskEj(i32 noundef %8)
  %10 = and i32 %7, %9
  %11 = icmp ne i32 %10, 0
  ret i1 %11
}

; Function Attrs: mustprogress uwtable
define hidden void @_ZN16fixed_bit_vector3setERKS_jj(ptr noundef nonnull align 4 dereferenceable(4) %0, ptr noundef nonnull align 4 dereferenceable(4) %1, i32 noundef %2, i32 noundef %3) #4 align 2 {
  %5 = alloca ptr, align 8
  %6 = alloca ptr, align 8
  %7 = alloca i32, align 4
  %8 = alloca i32, align 4
  %9 = alloca i32, align 4
  %10 = alloca i32, align 4
  %11 = alloca i32, align 4
  %12 = alloca i32, align 4
  %13 = alloca i32, align 4
  store ptr %0, ptr %5, align 8, !tbaa !3
  store ptr %1, ptr %6, align 8, !tbaa !3
  store i32 %2, ptr %7, align 4, !tbaa !8
  store i32 %3, ptr %8, align 4, !tbaa !8
  %14 = load ptr, ptr %5, align 8
  %15 = load i32, ptr %8, align 4, !tbaa !8
  %16 = urem i32 %15, 32
  %17 = icmp eq i32 %16, 0
  br i1 %17, label %18, label %69

18:                                               ; preds = %4
  call void @llvm.lifetime.start.p0(i64 4, ptr %9) #3
  %19 = load i32, ptr %7, align 4, !tbaa !8
  %20 = load i32, ptr %8, align 4, !tbaa !8
  %21 = sub i32 %19, %20
  %22 = add i32 %21, 1
  %23 = udiv i32 %22, 32
  store i32 %23, ptr %9, align 4, !tbaa !8
  call void @llvm.lifetime.start.p0(i64 4, ptr %10) #3
  %24 = load i32, ptr %8, align 4, !tbaa !8
  %25 = udiv i32 %24, 32
  store i32 %25, ptr %10, align 4, !tbaa !8
  call void @llvm.lifetime.start.p0(i64 4, ptr %11) #3
  store i32 0, ptr %11, align 4, !tbaa !8
  br label %26

26:                                               ; preds = %44, %18
  %27 = load i32, ptr %11, align 4, !tbaa !8
  %28 = load i32, ptr %9, align 4, !tbaa !8
  %29 = icmp ult i32 %27, %28
  br i1 %29, label %31, label %30

30:                                               ; preds = %26
  call void @llvm.lifetime.end.p0(i64 4, ptr %11) #3
  br label %47

31:                                               ; preds = %26
  %32 = load ptr, ptr %6, align 8, !tbaa !3
  %33 = getelementptr inbounds nuw %class.fixed_bit_vector, ptr %32, i32 0, i32 0
  %34 = load i32, ptr %11, align 4, !tbaa !8
  %35 = zext i32 %34 to i64
  %36 = getelementptr inbounds nuw [1 x i32], ptr %33, i64 0, i64 %35
  %37 = load i32, ptr %36, align 4, !tbaa !8
  %38 = getelementptr inbounds nuw %class.fixed_bit_vector, ptr %14, i32 0, i32 0
  %39 = load i32, ptr %10, align 4, !tbaa !8
  %40 = load i32, ptr %11, align 4, !tbaa !8
  %41 = add i32 %39, %40
  %42 = zext i32 %41 to i64
  %43 = getelementptr inbounds nuw [1 x i32], ptr %38, i64 0, i64 %42
  store i32 %37, ptr %43, align 4, !tbaa !8
  br label %44

44:                                               ; preds = %31
  %45 = load i32, ptr %11, align 4, !tbaa !8
  %46 = add i32 %45, 1
  store i32 %46, ptr %11, align 4, !tbaa !8
  br label %26, !llvm.loop !10

47:                                               ; preds = %30
  call void @llvm.lifetime.start.p0(i64 4, ptr %12) #3
  %48 = load i32, ptr %9, align 4, !tbaa !8
  %49 = mul i32 %48, 32
  store i32 %49, ptr %12, align 4, !tbaa !8
  br label %50

50:                                               ; preds = %65, %47
  %51 = load i32, ptr %12, align 4, !tbaa !8
  %52 = load i32, ptr %7, align 4, !tbaa !8
  %53 = load i32, ptr %8, align 4, !tbaa !8
  %54 = sub i32 %52, %53
  %55 = add i32 %54, 1
  %56 = icmp ult i32 %51, %55
  br i1 %56, label %58, label %57

57:                                               ; preds = %50
  call void @llvm.lifetime.end.p0(i64 4, ptr %12) #3
  br label %68

58:                                               ; preds = %50
  %59 = load i32, ptr %8, align 4, !tbaa !8
  %60 = load i32, ptr %12, align 4, !tbaa !8
  %61 = add i32 %59, %60
  %62 = load ptr, ptr %6, align 8, !tbaa !3
  %63 = load i32, ptr %12, align 4, !tbaa !8
  %64 = call noundef zeroext i1 @_ZNK16fixed_bit_vector3getEj(ptr noundef nonnull align 4 dereferenceable(4) %62, i32 noundef %63)
  call void @_ZN16fixed_bit_vector3setEjb(ptr noundef nonnull align 4 dereferenceable(4) %14, i32 noundef %61, i1 noundef zeroext %64)
  br label %65

65:                                               ; preds = %58
  %66 = load i32, ptr %12, align 4, !tbaa !8
  %67 = add i32 %66, 1
  store i32 %67, ptr %12, align 4, !tbaa !8
  br label %50, !llvm.loop !12

68:                                               ; preds = %57
  call void @llvm.lifetime.end.p0(i64 4, ptr %10) #3
  call void @llvm.lifetime.end.p0(i64 4, ptr %9) #3
  br label %88

69:                                               ; preds = %4
  call void @llvm.lifetime.start.p0(i64 4, ptr %13) #3
  store i32 0, ptr %13, align 4, !tbaa !8
  br label %70

70:                                               ; preds = %85, %69
  %71 = load i32, ptr %13, align 4, !tbaa !8
  %72 = load i32, ptr %7, align 4, !tbaa !8
  %73 = load i32, ptr %8, align 4, !tbaa !8
  %74 = sub i32 %72, %73
  %75 = add i32 %74, 1
  %76 = icmp ult i32 %71, %75
  br i1 %76, label %78, label %77

77:                                               ; preds = %70
  call void @llvm.lifetime.end.p0(i64 4, ptr %13) #3
  br label %88

78:                                               ; preds = %70
  %79 = load i32, ptr %8, align 4, !tbaa !8
  %80 = load i32, ptr %13, align 4, !tbaa !8
  %81 = add i32 %79, %80
  %82 = load ptr, ptr %6, align 8, !tbaa !3
  %83 = load i32, ptr %13, align 4, !tbaa !8
  %84 = call noundef zeroext i1 @_ZNK16fixed_bit_vector3getEj(ptr noundef nonnull align 4 dereferenceable(4) %82, i32 noundef %83)
  call void @_ZN16fixed_bit_vector3setEjb(ptr noundef nonnull align 4 dereferenceable(4) %14, i32 noundef %81, i1 noundef zeroext %84)
  br label %85

85:                                               ; preds = %78
  %86 = load i32, ptr %13, align 4, !tbaa !8
  %87 = add i32 %86, 1
  store i32 %87, ptr %13, align 4, !tbaa !8
  br label %70, !llvm.loop !13

88:                                               ; preds = %68, %77
  ret void
}