; Function Attrs: mustprogress nofree norecurse nosync nounwind memory(argmem: readwrite) uwtable
define hidden void @_ZN16fixed_bit_vector3setERKS_jj(ptr noundef nonnull align 4 captures(none) dereferenceable(4) %0, ptr noundef nonnull readonly align 4 captures(none) dereferenceable(4) %1, i32 noundef %2, i32 noundef %3) local_unnamed_addr #3 align 2 {
  %5 = and i32 %3, 31
  %6 = icmp eq i32 %5, 0
  br i1 %6, label %9, label %.preheader

.preheader:                                       ; preds = %4
  %7 = add i32 %2, 1
  %.not = icmp eq i32 %7, %3
  br i1 %.not, label %.loopexit, label %.lr.ph.preheader

.lr.ph.preheader:                                 ; preds = %.preheader
  %8 = sub i32 %7, %3
  %umax = tail call i32 @llvm.umax.i32(i32 %8, i32 1)
  br label %.lr.ph

9:                                                ; preds = %4
  %10 = sub i32 %2, %3
  %11 = add i32 %10, 1
  %.not39 = icmp ult i32 %11, 32
  br i1 %.not39, label %._crit_edge, label %.lr.ph35.preheader

.lr.ph35.preheader:                               ; preds = %9
  %12 = lshr exact i32 %3, 5
  %13 = lshr i32 %11, 5
  %14 = zext nneg i32 %12 to i64
  %wide.trip.count = zext nneg i32 %13 to i64
  br label %.lr.ph35

._crit_edge:                                      ; preds = %.lr.ph35, %9
  %15 = and i32 %11, -32
  %.not40 = icmp eq i32 %15, %11
  br i1 %.not40, label %.loopexit, label %.lr.ph38

.lr.ph35:                                         ; preds = %.lr.ph35.preheader, %.lr.ph35
  %indvars.iv = phi i64 [ 0, %.lr.ph35.preheader ], [ %indvars.iv.next, %.lr.ph35 ]
  %16 = getelementptr inbounds nuw [1 x i32], ptr %1, i64 0, i64 %indvars.iv
  %17 = load i32, ptr %16, align 4, !tbaa !3
  %18 = add nuw nsw i64 %indvars.iv, %14
  %19 = getelementptr inbounds nuw [1 x i32], ptr %0, i64 0, i64 %18
  store i32 %17, ptr %19, align 4, !tbaa !3
  %indvars.iv.next = add nuw nsw i64 %indvars.iv, 1
  %exitcond44.not = icmp eq i64 %indvars.iv.next, %wide.trip.count
  br i1 %exitcond44.not, label %._crit_edge, label %.lr.ph35, !llvm.loop !7

.lr.ph38:                                         ; preds = %._crit_edge, %.lr.ph38
  %.02836 = phi i32 [ %36, %.lr.ph38 ], [ %15, %._crit_edge ]
  %20 = add i32 %.02836, %3
  %21 = lshr i32 %.02836, 5
  %22 = zext nneg i32 %21 to i64
  %23 = getelementptr inbounds nuw [1 x i32], ptr %1, i64 0, i64 %22
  %24 = load i32, ptr %23, align 4, !tbaa !3
  %25 = and i32 %.02836, 31
  %26 = shl nuw i32 1, %25
  %27 = and i32 %24, %26
  %28 = icmp ne i32 %27, 0
  %.neg.i = sext i1 %28 to i32
  %29 = lshr i32 %20, 5
  %30 = zext nneg i32 %29 to i64
  %31 = getelementptr inbounds nuw [1 x i32], ptr %0, i64 0, i64 %30
  %32 = load i32, ptr %31, align 4, !tbaa !3
  %33 = xor i32 %32, %.neg.i
  %34 = and i32 %33, %26
  %35 = xor i32 %34, %32
  store i32 %35, ptr %31, align 4, !tbaa !3
  %36 = add nuw i32 %.02836, 1
  %37 = icmp ult i32 %36, %11
  br i1 %37, label %.lr.ph38, label %.loopexit, !llvm.loop !9

.lr.ph:                                           ; preds = %.lr.ph.preheader, %.lr.ph
  %.033 = phi i32 [ %56, %.lr.ph ], [ 0, %.lr.ph.preheader ]
  %38 = add i32 %.033, %3
  %39 = lshr i32 %.033, 5
  %40 = zext nneg i32 %39 to i64
  %41 = getelementptr inbounds nuw [1 x i32], ptr %1, i64 0, i64 %40
  %42 = load i32, ptr %41, align 4, !tbaa !3
  %43 = and i32 %.033, 31
  %44 = shl nuw i32 1, %43
  %45 = and i32 %42, %44
  %46 = icmp ne i32 %45, 0
  %.neg.i31 = sext i1 %46 to i32
  %47 = lshr i32 %38, 5
  %48 = zext nneg i32 %47 to i64
  %49 = getelementptr inbounds nuw [1 x i32], ptr %0, i64 0, i64 %48
  %50 = load i32, ptr %49, align 4, !tbaa !3
  %51 = xor i32 %50, %.neg.i31
  %52 = and i32 %38, 31
  %53 = shl nuw i32 1, %52
  %54 = and i32 %51, %53
  %55 = xor i32 %54, %50
  store i32 %55, ptr %49, align 4, !tbaa !3
  %56 = add nuw i32 %.033, 1
  %exitcond.not = icmp eq i32 %56, %umax
  br i1 %exitcond.not, label %.loopexit, label %.lr.ph, !llvm.loop !10

.loopexit:                                        ; preds = %.lr.ph, %.lr.ph38, %.preheader, %._crit_edge
  ret void
}